target datalayout = "e-m:e-p270:32:32-p271:32:32-p272:64:64-i64:64-i128:128-f80:128-n8:16:32:64-S128"
target triple = "x86_64-unknown-linux-gnu"

%struct.btDbvtBroadphase = type { %class.btBroadphaseInterface, [2 x %struct.btDbvt], [3 x ptr], ptr, float, i32, i32, i32, i32, i32, i32, i32, i32, float, i32, i32, i32, i8, i8, i8, i8, %class.btAlignedObjectArray.0 }
%class.btBroadphaseInterface = type { ptr }
%struct.btDbvt = type { ptr, ptr, i32, i32, i32, [4 x i8], %class.btAlignedObjectArray }
%class.btAlignedObjectArray = type <{ %class.btAlignedAllocator, [3 x i8], i32, i32, [4 x i8], ptr, i8, [7 x i8] }>
%class.btAlignedAllocator = type { i8 }
%class.btAlignedObjectArray.0 = type <{ %class.btAlignedAllocator.1, [3 x i8], i32, i32, [4 x i8], ptr, i8, [7 x i8] }>
%class.btAlignedAllocator.1 = type { i8 }

; Function Attrs: mustprogress nounwind uwtable
define linkonce_odr dso_local void @_ZN21btBroadphaseInterfaceD2Ev(ptr noundef nonnull align 8 dereferenceable(8) %this) unnamed_addr #1 comdat align 2 {
entry:
  %this.addr = alloca ptr, align 8
  store ptr %this, ptr %this.addr, align 8
  ret void
}

; Function Attrs: mustprogress nounwind uwtable
define dso_local void @_ZN16btDbvtBroadphaseD2Ev(ptr noundef nonnull align 8 dereferenceable(256) %this) unnamed_addr #1 align 2 personality ptr @__gxx_personality_v0 {
entry:
  %this.addr = alloca ptr, align 8
  store ptr %this, ptr %this.addr, align 8
  %this1 = load ptr, ptr %this.addr, align 8
  store ptr getelementptr inbounds ({ [16 x ptr] }, ptr @_ZTV16btDbvtBroadphase, i32 0, i32 0, i32 2), ptr %this1, align 8
  %m_releasepaircache = getelementptr inbounds %struct.btDbvtBroadphase, ptr %this1, i32 0, i32 17
  %0 = load i8, ptr %m_releasepaircache, align 4
  %tobool = trunc i8 %0 to i1
  br i1 %tobool, label %if.then, label %if.end

if.then:                                          ; preds = %entry
  %m_paircache = getelementptr inbounds %struct.btDbvtBroadphase, ptr %this1, i32 0, i32 3
  %1 = load ptr, ptr %m_paircache, align 8
  %vtable = load ptr, ptr %1, align 8
  %vfn = getelementptr inbounds ptr, ptr %vtable, i64 0
  %2 = load ptr, ptr %vfn, align 8
  call void %2(ptr noundef nonnull align 8 dereferenceable(8) %1) #10
  %m_paircache2 = getelementptr inbounds %struct.btDbvtBroadphase, ptr %this1, i32 0, i32 3
  %3 = load ptr, ptr %m_paircache2, align 8
  invoke void @_Z21btAlignedFreeInternalPv(ptr noundef %3)
          to label %invoke.cont unwind label %terminate.lpad

invoke.cont:                                      ; preds = %if.then
  br label %if.end

if.end:                                           ; preds = %invoke.cont, %entry
  %m_rayTestStacks = getelementptr inbounds %struct.btDbvtBroadphase, ptr %this1, i32 0, i32 21
  call void @_ZN20btAlignedObjectArrayIS_IPK10btDbvtNodeEED2Ev(ptr noundef nonnull align 8 dereferenceable(25) %m_rayTestStacks) #10
  %m_sets = getelementptr inbounds %struct.btDbvtBroadphase, ptr %this1, i32 0, i32 1
  %array.begin = getelementptr inbounds [2 x %struct.btDbvt], ptr %m_sets, i32 0, i32 0
  %4 = getelementptr inbounds %struct.btDbvt, ptr %array.begin, i64 2
  br label %arraydestroy.body

arraydestroy.body:                                ; preds = %arraydestroy.body, %if.end
  %arraydestroy.elementPast = phi ptr [ %4, %if.end ], [ %arraydestroy.element, %arraydestroy.body ]
  %arraydestroy.element = getelementptr inbounds %struct.btDbvt, ptr %arraydestroy.elementPast, i64 -1
  call void @_ZN6btDbvtD1Ev(ptr noundef nonnull align 8 dereferenceable(64) %arraydestroy.element) #10
  %arraydestroy.done = icmp eq ptr %arraydestroy.element, %array.begin
  br i1 %arraydestroy.done, label %arraydestroy.done3, label %arraydestroy.body

arraydestroy.done3:                               ; preds = %arraydestroy.body
  call void @_ZN21btBroadphaseInterfaceD2Ev(ptr noundef nonnull align 8 dereferenceable(8) %this1) #10
  ret void

terminate.lpad:                                   ; preds = %if.then
  %5 = landingpad { ptr, i32 }
          catch ptr null
  %6 = extractvalue { ptr, i32 } %5, 0
  call void @__clang_call_terminate(ptr %6) #11
  unreachable
}