; Function Attrs: mustprogress nounwind uwtable
define dso_local void @_ZN16btDbvtBroadphaseD2Ev(ptr noundef nonnull align 8 dereferenceable(256) %this) unnamed_addr #3 align 2 personality ptr @__gxx_personality_v0 {
entry:
  store ptr getelementptr inbounds ({ [16 x ptr] }, ptr @_ZTV16btDbvtBroadphase, i64 0, i32 0, i64 2), ptr %this, align 8
  %m_releasepaircache = getelementptr inbounds i8, ptr %this, i64 220
  %0 = load i8, ptr %m_releasepaircache, align 4
  %1 = and i8 %0, 1
  %tobool.not = icmp eq i8 %1, 0
  br i1 %tobool.not, label %if.end, label %if.then

if.then:                                          ; preds = %entry
  %m_paircache = getelementptr inbounds i8, ptr %this, i64 160
  %2 = load ptr, ptr %m_paircache, align 8
  %vtable = load ptr, ptr %2, align 8
  %3 = load ptr, ptr %vtable, align 8
  tail call void %3(ptr noundef nonnull align 8 dereferenceable(8) %2) #15
  %4 = load ptr, ptr %m_paircache, align 8
  invoke void @_Z21btAlignedFreeInternalPv(ptr noundef %4)
          to label %if.end unwind label %terminate.lpad

if.end:                                           ; preds = %if.then, %entry
  %m_rayTestStacks = getelementptr inbounds i8, ptr %this, i64 224
  tail call void @_ZN20btAlignedObjectArrayIS_IPK10btDbvtNodeEED2Ev(ptr noundef nonnull align 8 dereferenceable(25) %m_rayTestStacks) #15
  br label %arraydestroy.body

arraydestroy.body:                                ; preds = %arraydestroy.body, %if.end
  %arraydestroy.elementPast.idx = phi i64 [ 136, %if.end ], [ %arraydestroy.elementPast.add, %arraydestroy.body ]
  %arraydestroy.elementPast.add = add nsw i64 %arraydestroy.elementPast.idx, -64
  %arraydestroy.element.ptr = getelementptr inbounds i8, ptr %this, i64 %arraydestroy.elementPast.add
  tail call void @_ZN6btDbvtD1Ev(ptr noundef nonnull align 8 dereferenceable(64) %arraydestroy.element.ptr) #15
  %arraydestroy.done = icmp eq i64 %arraydestroy.elementPast.add, 8
  br i1 %arraydestroy.done, label %arraydestroy.done3, label %arraydestroy.body

arraydestroy.done3:                               ; preds = %arraydestroy.body
  ret void

terminate.lpad:                                   ; preds = %if.then
  %5 = landingpad { ptr, i32 }
          catch ptr null
  %6 = extractvalue { ptr, i32 } %5, 0
  tail call void @__clang_call_terminate(ptr %6) #16
  unreachable
}